; Function Attrs: nounwind uwtable
define internal void @ssl_x25519_cleanup(ptr noundef readonly captures(none) %0) #3 {
  %2 = getelementptr inbounds nuw i8, ptr %0, i64 8
  %3 = load ptr, ptr %2, align 8, !tbaa !22
  %4 = icmp eq ptr %3, null
  br i1 %4, label %7, label %5

5:                                                ; preds = %1
  tail call void @OPENSSL_cleanse(ptr noundef nonnull %3, i64 noundef 32) #8
  %6 = load ptr, ptr %2, align 8, !tbaa !22
  tail call void @free(ptr noundef %6) #8
  br label %7

7:                                                ; preds = %1, %5
  ret void
}